target datalayout = "e-m:e-p270:32:32-p271:32:32-p272:64:64-i64:64-i128:128-f80:128-n8:16:32:64-S128"
target triple = "x86_64-pc-linux-gnu"

%struct.H5O_token_t = type { [16 x i8] }
%struct.h5tools_dump_header_t = type { ptr, ptr, ptr, ptr, ptr, ptr, ptr, ptr, ptr, ptr, ptr, ptr, ptr, ptr, ptr, ptr, ptr, ptr, ptr, ptr, ptr, ptr, ptr, ptr, ptr, ptr, ptr, ptr, ptr, ptr, ptr, ptr, ptr, ptr, ptr, ptr, ptr, ptr, ptr, ptr, ptr, ptr, ptr, ptr, ptr, ptr, ptr, ptr, ptr, ptr, ptr, ptr, ptr, ptr, ptr, ptr, ptr, ptr, ptr, ptr, ptr, ptr, ptr, ptr, ptr, ptr, ptr, ptr, ptr, ptr, ptr, ptr, ptr, ptr, ptr, ptr, ptr, ptr, ptr, ptr, ptr, ptr, ptr, ptr, ptr, ptr, ptr, ptr, ptr, ptr, ptr, ptr, ptr, ptr, ptr }
%struct.obj_t = type { %struct.H5O_token_t, ptr, i8, i8 }
%struct.table_t = type { i64, i64, i64, ptr }

@dump_indent = external global i32, align 4
@type_table = external global ptr, align 8
@rawoutstream = external global ptr, align 8
@.str.4 = private unnamed_addr constant [11 x i8] c"%s \22%s\22 %s\00", align 1
@h5tools_dump_header_format = external global ptr, align 8
@.str.10 = private unnamed_addr constant [3 x i8] c"%s\00", align 1
@.str.11 = private unnamed_addr constant [2 x i8] c" \00", align 1
@.str.70 = private unnamed_addr constant [2 x i8] c"\0A\00", align 1
@.str.71 = private unnamed_addr constant [6 x i8] c"%s %s\00", align 1
@.str.83 = private unnamed_addr constant [5 x i8] c"/#%s\00", align 1
@.str.84 = private unnamed_addr constant [30 x i8] c"unable to open datatype \22%s\22\0A\00", align 1

; Function Attrs: nounwind uwtable
define dso_local void @handle_datatypes(i64 noundef %0, ptr noundef %1, ptr noundef %2, i32 noundef %3, ptr noundef %4) #0 {
  %6 = alloca i64, align 8
  %7 = alloca ptr, align 8
  %8 = alloca ptr, align 8
  %9 = alloca i32, align 4
  %10 = alloca ptr, align 8
  %11 = alloca i64, align 8
  %12 = alloca ptr, align 8
  %13 = alloca i32, align 4
  %14 = alloca [128 x i8], align 16
  %15 = alloca ptr, align 8
  %16 = alloca i32, align 4
  %17 = alloca i64, align 8
  store i64 %0, ptr %6, align 8, !tbaa !4
  store ptr %1, ptr %7, align 8, !tbaa !22
  store ptr %2, ptr %8, align 8, !tbaa !24
  store i32 %3, ptr %9, align 4, !tbaa !11
  store ptr %4, ptr %10, align 8, !tbaa !22
  call void @llvm.lifetime.start.p0(i64 8, ptr %11) #10
  call void @llvm.lifetime.start.p0(i64 8, ptr %12) #10
  %18 = load ptr, ptr %10, align 8, !tbaa !22
  %19 = icmp ne ptr %18, null
  br i1 %19, label %20, label %22

20:                                               ; preds = %5
  %21 = load ptr, ptr %10, align 8, !tbaa !22
  br label %24

22:                                               ; preds = %5
  %23 = load ptr, ptr %7, align 8, !tbaa !22
  br label %24

24:                                               ; preds = %22, %20
  %25 = phi ptr [ %21, %20 ], [ %23, %22 ]
  store ptr %25, ptr %12, align 8, !tbaa !22
  %26 = load i64, ptr %6, align 8, !tbaa !4
  %27 = load ptr, ptr %7, align 8, !tbaa !22
  %28 = call i64 @H5Topen2(i64 noundef %26, ptr noundef %27, i64 noundef 0)
  store i64 %28, ptr %11, align 8, !tbaa !4
  %29 = icmp slt i64 %28, 0
  br i1 %29, label %30, label %208

30:                                               ; preds = %24
  call void @llvm.lifetime.start.p0(i64 4, ptr %13) #10
  store i32 0, ptr %13, align 4, !tbaa !11
  br label %31

31:                                               ; preds = %77, %30
  %32 = load i32, ptr %13, align 4, !tbaa !11
  %33 = zext i32 %32 to i64
  %34 = load ptr, ptr @type_table, align 8, !tbaa !18
  %35 = getelementptr inbounds nuw %struct.table_t, ptr %34, i32 0, i32 2
  %36 = load i64, ptr %35, align 8, !tbaa !96
  %37 = icmp ult i64 %33, %36
  br i1 %37, label %38, label %78

38:                                               ; preds = %31
  call void @llvm.lifetime.start.p0(i64 128, ptr %14) #10
  %39 = load ptr, ptr @type_table, align 8, !tbaa !18
  %40 = getelementptr inbounds nuw %struct.table_t, ptr %39, i32 0, i32 3
  %41 = load ptr, ptr %40, align 8, !tbaa !98
  %42 = load i32, ptr %13, align 4, !tbaa !11
  %43 = zext i32 %42 to i64
  %44 = getelementptr inbounds nuw %struct.obj_t, ptr %41, i64 %43
  %45 = getelementptr inbounds nuw %struct.obj_t, ptr %44, i32 0, i32 3
  %46 = load i8, ptr %45, align 1, !tbaa !99, !range !60, !noundef !61
  %47 = trunc i8 %46 to i1
  br i1 %47, label %72, label %48

48:                                               ; preds = %38
  call void @llvm.lifetime.start.p0(i64 8, ptr %15) #10
  store ptr null, ptr %15, align 8, !tbaa !22
  %49 = load i64, ptr %6, align 8, !tbaa !4
  %50 = load ptr, ptr @type_table, align 8, !tbaa !18
  %51 = getelementptr inbounds nuw %struct.table_t, ptr %50, i32 0, i32 3
  %52 = load ptr, ptr %51, align 8, !tbaa !98
  %53 = load i32, ptr %13, align 4, !tbaa !11
  %54 = zext i32 %53 to i64
  %55 = getelementptr inbounds nuw %struct.obj_t, ptr %52, i64 %54
  %56 = getelementptr inbounds nuw %struct.obj_t, ptr %55, i32 0, i32 0
  %57 = call i32 @H5Otoken_to_str(i64 noundef %49, ptr noundef %56, ptr noundef %15)
  %58 = getelementptr inbounds [128 x i8], ptr %14, i64 0, i64 0
  %59 = load ptr, ptr %15, align 8, !tbaa !22
  %60 = call i32 (ptr, i64, ptr, ...) @snprintf(ptr noundef %58, i64 noundef 128, ptr noundef @.str.83, ptr noundef %59) #10
  %61 = load ptr, ptr %15, align 8, !tbaa !22
  %62 = call i32 @H5free_memory(ptr noundef %61)
  %63 = getelementptr inbounds [128 x i8], ptr %14, i64 0, i64 0
  %64 = load ptr, ptr %12, align 8, !tbaa !22
  %65 = call i32 @strcmp(ptr noundef %63, ptr noundef %64) #11
  %66 = icmp ne i32 %65, 0
  br i1 %66, label %68, label %67

67:                                               ; preds = %48
  store i32 3, ptr %16, align 4
  br label %69

68:                                               ; preds = %48
  store i32 0, ptr %16, align 4
  br label %69

69:                                               ; preds = %68, %67
  call void @llvm.lifetime.end.p0(i64 8, ptr %15) #10
  %70 = load i32, ptr %16, align 4
  switch i32 %70, label %75 [
    i32 0, label %71
  ]

71:                                               ; preds = %69
  br label %72

72:                                               ; preds = %71, %38
  %73 = load i32, ptr %13, align 4, !tbaa !11
  %74 = add i32 %73, 1
  store i32 %74, ptr %13, align 4, !tbaa !11
  store i32 0, ptr %16, align 4
  br label %75

75:                                               ; preds = %72, %69
  call void @llvm.lifetime.end.p0(i64 128, ptr %14) #10
  %76 = load i32, ptr %16, align 4
  switch i32 %76, label %221 [
    i32 0, label %77
    i32 3, label %78
  ]

77:                                               ; preds = %75
  br label %31, !llvm.loop !147

78:                                               ; preds = %75, %31
  %79 = load i32, ptr %13, align 4, !tbaa !11
  %80 = zext i32 %79 to i64
  %81 = load ptr, ptr @type_table, align 8, !tbaa !18
  %82 = getelementptr inbounds nuw %struct.table_t, ptr %81, i32 0, i32 2
  %83 = load i64, ptr %82, align 8, !tbaa !96
  %84 = icmp eq i64 %80, %83
  br i1 %84, label %85, label %184

85:                                               ; preds = %78
  %86 = load i32, ptr %9, align 4, !tbaa !11
  %87 = icmp ne i32 %86, 0
  br i1 %87, label %88, label %183

88:                                               ; preds = %85
  %89 = load ptr, ptr @rawoutstream, align 8, !tbaa !20
  %90 = icmp ne ptr %89, null
  br i1 %90, label %91, label %94

91:                                               ; preds = %88
  %92 = load ptr, ptr @rawoutstream, align 8, !tbaa !20
  %93 = call i32 (ptr, ptr, ...) @fprintf(ptr noundef %92, ptr noundef @.str.70) #10
  br label %94

94:                                               ; preds = %91, %88
  br label %95

95:                                               ; preds = %94
  %96 = load ptr, ptr %12, align 8, !tbaa !22
  %97 = icmp ne ptr %96, null
  br i1 %97, label %98, label %112

98:                                               ; preds = %95
  %99 = load ptr, ptr @rawoutstream, align 8, !tbaa !20
  %100 = icmp ne ptr %99, null
  br i1 %100, label %101, label %111

101:                                              ; preds = %98
  %102 = load ptr, ptr @rawoutstream, align 8, !tbaa !20
  %103 = load ptr, ptr @h5tools_dump_header_format, align 8, !tbaa !65
  %104 = getelementptr inbounds nuw %struct.h5tools_dump_header_t, ptr %103, i32 0, i32 11
  %105 = load ptr, ptr %104, align 8, !tbaa !90
  %106 = load ptr, ptr %12, align 8, !tbaa !22
  %107 = load ptr, ptr @h5tools_dump_header_format, align 8, !tbaa !65
  %108 = getelementptr inbounds nuw %struct.h5tools_dump_header_t, ptr %107, i32 0, i32 43
  %109 = load ptr, ptr %108, align 8, !tbaa !91
  %110 = call i32 (ptr, ptr, ...) @fprintf(ptr noundef %102, ptr noundef @.str.4, ptr noundef %105, ptr noundef %106, ptr noundef %109) #10
  br label %111

111:                                              ; preds = %101, %98
  br label %125

112:                                              ; preds = %95
  %113 = load ptr, ptr @rawoutstream, align 8, !tbaa !20
  %114 = icmp ne ptr %113, null
  br i1 %114, label %115, label %124

115:                                              ; preds = %112
  %116 = load ptr, ptr @rawoutstream, align 8, !tbaa !20
  %117 = load ptr, ptr @h5tools_dump_header_format, align 8, !tbaa !65
  %118 = getelementptr inbounds nuw %struct.h5tools_dump_header_t, ptr %117, i32 0, i32 11
  %119 = load ptr, ptr %118, align 8, !tbaa !90
  %120 = load ptr, ptr @h5tools_dump_header_format, align 8, !tbaa !65
  %121 = getelementptr inbounds nuw %struct.h5tools_dump_header_t, ptr %120, i32 0, i32 43
  %122 = load ptr, ptr %121, align 8, !tbaa !91
  %123 = call i32 (ptr, ptr, ...) @fprintf(ptr noundef %116, ptr noundef @.str.71, ptr noundef %119, ptr noundef %122) #10
  br label %124

124:                                              ; preds = %115, %112
  br label %125

125:                                              ; preds = %124, %111
  br label %126

126:                                              ; preds = %125
  br label %127

127:                                              ; preds = %126
  %128 = load ptr, ptr @rawoutstream, align 8, !tbaa !20
  %129 = icmp ne ptr %128, null
  br i1 %129, label %130, label %133

130:                                              ; preds = %127
  %131 = load ptr, ptr @rawoutstream, align 8, !tbaa !20
  %132 = call i32 (ptr, ptr, ...) @fprintf(ptr noundef %131, ptr noundef @.str.70) #10
  br label %133

133:                                              ; preds = %130, %127
  call void @indentation(i32 noundef 3)
  %134 = load ptr, ptr %12, align 8, !tbaa !22
  call void (ptr, ...) @error_msg(ptr noundef @.str.84, ptr noundef %134)
  br label %135

135:                                              ; preds = %133
  %136 = load ptr, ptr @h5tools_dump_header_format, align 8, !tbaa !65
  %137 = getelementptr inbounds nuw %struct.h5tools_dump_header_t, ptr %136, i32 0, i32 44
  %138 = load ptr, ptr %137, align 8, !tbaa !92
  %139 = call i64 @strlen(ptr noundef %138) #11
  %140 = icmp ne i64 %139, 0
  br i1 %140, label %141, label %164

141:                                              ; preds = %135
  %142 = load ptr, ptr @rawoutstream, align 8, !tbaa !20
  %143 = icmp ne ptr %142, null
  br i1 %143, label %144, label %150

144:                                              ; preds = %141
  %145 = load ptr, ptr @rawoutstream, align 8, !tbaa !20
  %146 = load ptr, ptr @h5tools_dump_header_format, align 8, !tbaa !65
  %147 = getelementptr inbounds nuw %struct.h5tools_dump_header_t, ptr %146, i32 0, i32 44
  %148 = load ptr, ptr %147, align 8, !tbaa !92
  %149 = call i32 (ptr, ptr, ...) @fprintf(ptr noundef %145, ptr noundef @.str.10, ptr noundef %148) #10
  br label %150

150:                                              ; preds = %144, %141
  %151 = load ptr, ptr @h5tools_dump_header_format, align 8, !tbaa !65
  %152 = getelementptr inbounds nuw %struct.h5tools_dump_header_t, ptr %151, i32 0, i32 12
  %153 = load ptr, ptr %152, align 8, !tbaa !93
  %154 = call i64 @strlen(ptr noundef %153) #11
  %155 = icmp ne i64 %154, 0
  br i1 %155, label %156, label %163

156:                                              ; preds = %150
  %157 = load ptr, ptr @rawoutstream, align 8, !tbaa !20
  %158 = icmp ne ptr %157, null
  br i1 %158, label %159, label %162

159:                                              ; preds = %156
  %160 = load ptr, ptr @rawoutstream, align 8, !tbaa !20
  %161 = call i32 (ptr, ptr, ...) @fprintf(ptr noundef %160, ptr noundef @.str.11) #10
  br label %162

162:                                              ; preds = %159, %156
  br label %163

163:                                              ; preds = %162, %150
  br label %164

164:                                              ; preds = %163, %135
  %165 = load ptr, ptr @h5tools_dump_header_format, align 8, !tbaa !65
  %166 = getelementptr inbounds nuw %struct.h5tools_dump_header_t, ptr %165, i32 0, i32 12
  %167 = load ptr, ptr %166, align 8, !tbaa !93
  %168 = call i64 @strlen(ptr noundef %167) #11
  %169 = icmp ne i64 %168, 0
  br i1 %169, label %170, label %180

170:                                              ; preds = %164
  %171 = load ptr, ptr @rawoutstream, align 8, !tbaa !20
  %172 = icmp ne ptr %171, null
  br i1 %172, label %173, label %179

173:                                              ; preds = %170
  %174 = load ptr, ptr @rawoutstream, align 8, !tbaa !20
  %175 = load ptr, ptr @h5tools_dump_header_format, align 8, !tbaa !65
  %176 = getelementptr inbounds nuw %struct.h5tools_dump_header_t, ptr %175, i32 0, i32 12
  %177 = load ptr, ptr %176, align 8, !tbaa !93
  %178 = call i32 (ptr, ptr, ...) @fprintf(ptr noundef %174, ptr noundef @.str.10, ptr noundef %177) #10
  br label %179

179:                                              ; preds = %173, %170
  br label %180

180:                                              ; preds = %179, %164
  br label %181

181:                                              ; preds = %180
  br label %182

182:                                              ; preds = %181
  call void @h5tools_setstatus(i32 noundef 1)
  br label %183

183:                                              ; preds = %182, %85
  br label %207

184:                                              ; preds = %78
  call void @llvm.lifetime.start.p0(i64 8, ptr %17) #10
  %185 = load i64, ptr %6, align 8, !tbaa !4
  %186 = load ptr, ptr @type_table, align 8, !tbaa !18
  %187 = getelementptr inbounds nuw %struct.table_t, ptr %186, i32 0, i32 3
  %188 = load ptr, ptr %187, align 8, !tbaa !98
  %189 = load i32, ptr %13, align 4, !tbaa !11
  %190 = zext i32 %189 to i64
  %191 = getelementptr inbounds nuw %struct.obj_t, ptr %188, i64 %190
  %192 = getelementptr inbounds nuw %struct.obj_t, ptr %191, i32 0, i32 1
  %193 = load ptr, ptr %192, align 8, !tbaa !74
  %194 = call i64 @H5Dopen2(i64 noundef %185, ptr noundef %193, i64 noundef 0)
  store i64 %194, ptr %17, align 8, !tbaa !4
  %195 = load i64, ptr %17, align 8, !tbaa !4
  %196 = call i64 @H5Dget_type(i64 noundef %195)
  store i64 %196, ptr %11, align 8, !tbaa !4
  %197 = load i32, ptr @dump_indent, align 4, !tbaa !11
  %198 = add i32 %197, 3
  store i32 %198, ptr @dump_indent, align 4, !tbaa !11
  %199 = load i64, ptr %11, align 8, !tbaa !4
  %200 = load ptr, ptr %12, align 8, !tbaa !22
  call void @dump_named_datatype(i64 noundef %199, ptr noundef %200)
  %201 = load i32, ptr @dump_indent, align 4, !tbaa !11
  %202 = sub i32 %201, 3
  store i32 %202, ptr @dump_indent, align 4, !tbaa !11
  %203 = load i64, ptr %11, align 8, !tbaa !4
  %204 = call i32 @H5Tclose(i64 noundef %203)
  %205 = load i64, ptr %17, align 8, !tbaa !4
  %206 = call i32 @H5Dclose(i64 noundef %205)
  call void @llvm.lifetime.end.p0(i64 8, ptr %17) #10
  br label %207

207:                                              ; preds = %184, %183
  call void @llvm.lifetime.end.p0(i64 4, ptr %13) #10
  br label %220

208:                                              ; preds = %24
  %209 = load i32, ptr @dump_indent, align 4, !tbaa !11
  %210 = add i32 %209, 3
  store i32 %210, ptr @dump_indent, align 4, !tbaa !11
  %211 = load i64, ptr %11, align 8, !tbaa !4
  %212 = load ptr, ptr %12, align 8, !tbaa !22
  call void @dump_named_datatype(i64 noundef %211, ptr noundef %212)
  %213 = load i32, ptr @dump_indent, align 4, !tbaa !11
  %214 = sub i32 %213, 3
  store i32 %214, ptr @dump_indent, align 4, !tbaa !11
  %215 = load i64, ptr %11, align 8, !tbaa !4
  %216 = call i32 @H5Tclose(i64 noundef %215)
  %217 = icmp slt i32 %216, 0
  br i1 %217, label %218, label %219

218:                                              ; preds = %208
  call void @h5tools_setstatus(i32 noundef 1)
  br label %219

219:                                              ; preds = %218, %208
  br label %220

220:                                              ; preds = %219, %207
  call void @llvm.lifetime.end.p0(i64 8, ptr %12) #10
  call void @llvm.lifetime.end.p0(i64 8, ptr %11) #10
  ret void

221:                                              ; preds = %75
  unreachable
}