; Function Attrs: nounwind uwtable
define dso_local void @handle_datatypes(i64 noundef %0, ptr noundef %1, ptr readnone captures(none) %2, i32 noundef %3, ptr noundef %4) local_unnamed_addr #0 {
  %6 = alloca [128 x i8], align 16
  %7 = alloca ptr, align 8
  %.not = icmp eq ptr %4, null
  %8 = select i1 %.not, ptr %1, ptr %4
  %9 = tail call i64 @H5Topen2(i64 noundef %0, ptr noundef %1, i64 noundef 0) #15
  %10 = icmp slt i64 %9, 0
  br i1 %10, label %.preheader.preheader, label %92

.preheader.preheader:                             ; preds = %5
  %.pre58 = load ptr, ptr @type_table, align 8, !tbaa !15
  %11 = getelementptr inbounds nuw i8, ptr %.pre58, i64 16
  %12 = load i64, ptr %11, align 8, !tbaa !98
  %.not92 = icmp eq i64 %12, 0
  br i1 %.not92, label %split, label %.lr.ph

.lr.ph:                                           ; preds = %.preheader.preheader, %.preheader
  %13 = phi i64 [ %30, %.preheader ], [ 0, %.preheader.preheader ]
  %.03088 = phi i32 [ %29, %.preheader ], [ 0, %.preheader.preheader ]
  %14 = phi ptr [ %28, %.preheader ], [ %.pre58, %.preheader.preheader ]
  call void @llvm.lifetime.start.p0(i64 128, ptr nonnull %6) #15
  %15 = getelementptr inbounds nuw i8, ptr %14, i64 24
  %16 = load ptr, ptr %15, align 8, !tbaa !101
  %17 = getelementptr inbounds nuw %struct.obj_t, ptr %16, i64 %13, i32 3
  %18 = load i8, ptr %17, align 1, !tbaa !102, !range !57, !noundef !58
  %19 = trunc nuw i8 %18 to i1
  br i1 %19, label %.preheader, label %20

20:                                               ; preds = %.lr.ph
  call void @llvm.lifetime.start.p0(i64 8, ptr nonnull %7) #15
  store ptr null, ptr %7, align 8, !tbaa !30
  %21 = getelementptr inbounds nuw %struct.obj_t, ptr %16, i64 %13
  %22 = call i32 @H5Otoken_to_str(i64 noundef %0, ptr noundef %21, ptr noundef nonnull %7) #15
  %23 = load ptr, ptr %7, align 8, !tbaa !30
  %24 = call i32 (ptr, i64, ptr, ...) @snprintf(ptr noundef nonnull dereferenceable(1) %6, i64 noundef 128, ptr noundef nonnull @.str.83, ptr noundef %23) #15
  %25 = load ptr, ptr %7, align 8, !tbaa !30
  %26 = call i32 @H5free_memory(ptr noundef %25) #15
  %27 = call i32 @strcmp(ptr noundef nonnull dereferenceable(1) %6, ptr noundef nonnull dereferenceable(1) %8) #17
  %.not43.not = icmp eq i32 %27, 0
  call void @llvm.lifetime.end.p0(i64 8, ptr nonnull %7) #15
  %.pre = load ptr, ptr @type_table, align 8, !tbaa !15
  br i1 %.not43.not, label %._crit_edge, label %.preheader

.preheader:                                       ; preds = %.lr.ph, %20
  %28 = phi ptr [ %.pre, %20 ], [ %14, %.lr.ph ]
  %29 = add i32 %.03088, 1
  call void @llvm.lifetime.end.p0(i64 128, ptr nonnull %6) #15
  %30 = zext i32 %29 to i64
  %31 = getelementptr inbounds nuw i8, ptr %28, i64 16
  %32 = load i64, ptr %31, align 8, !tbaa !98
  %33 = icmp ugt i64 %32, %30
  br i1 %33, label %.lr.ph, label %split

._crit_edge:                                      ; preds = %20
  call void @llvm.lifetime.end.p0(i64 128, ptr nonnull %6) #15
  %.phi.trans.insert = getelementptr inbounds nuw i8, ptr %.pre, i64 16
  %.pre59 = load i64, ptr %.phi.trans.insert, align 8, !tbaa !98
  %.pre65 = zext i32 %.03088 to i64
  br label %split

split:                                            ; preds = %.preheader, %.preheader.preheader, %._crit_edge
  %.pre-phi = phi i64 [ %.pre65, %._crit_edge ], [ 0, %.preheader.preheader ], [ %30, %.preheader ]
  %34 = phi i64 [ %.pre59, %._crit_edge ], [ %12, %.preheader.preheader ], [ %32, %.preheader ]
  %35 = phi ptr [ %.pre, %._crit_edge ], [ %.pre58, %.preheader.preheader ], [ %28, %.preheader ]
  %36 = icmp eq i64 %34, %.pre-phi
  br i1 %36, label %37, label %79

37:                                               ; preds = %split
  %.not44 = icmp eq i32 %3, 0
  br i1 %.not44, label %100, label %38

38:                                               ; preds = %37
  %39 = load ptr, ptr @rawoutstream, align 8, !tbaa !17
  %.not45 = icmp eq ptr %39, null
  br i1 %.not45, label %41, label %40

40:                                               ; preds = %38
  %fputc = call i32 @fputc(i32 10, ptr nonnull %39)
  br label %41

41:                                               ; preds = %38, %40
  %.not46 = icmp eq ptr %8, null
  %42 = load ptr, ptr @rawoutstream, align 8, !tbaa !17
  %.not47 = icmp eq ptr %42, null
  br i1 %.not46, label %51, label %43

43:                                               ; preds = %41
  br i1 %.not47, label %.thread, label %44

44:                                               ; preds = %43
  %45 = load ptr, ptr @h5tools_dump_header_format, align 8, !tbaa !60
  %46 = getelementptr inbounds nuw i8, ptr %45, i64 88
  %47 = load ptr, ptr %46, align 8, !tbaa !92
  %48 = getelementptr inbounds nuw i8, ptr %45, i64 344
  %49 = load ptr, ptr %48, align 8, !tbaa !93
  %50 = call i32 (ptr, ptr, ...) @fprintf(ptr noundef nonnull %42, ptr noundef nonnull @.str.4, ptr noundef %47, ptr noundef nonnull %8, ptr noundef %49) #15
  br label %59

51:                                               ; preds = %41
  br i1 %.not47, label %.thread, label %52

52:                                               ; preds = %51
  %53 = load ptr, ptr @h5tools_dump_header_format, align 8, !tbaa !60
  %54 = getelementptr inbounds nuw i8, ptr %53, i64 88
  %55 = load ptr, ptr %54, align 8, !tbaa !92
  %56 = getelementptr inbounds nuw i8, ptr %53, i64 344
  %57 = load ptr, ptr %56, align 8, !tbaa !93
  %58 = call i32 (ptr, ptr, ...) @fprintf(ptr noundef nonnull %42, ptr noundef nonnull @.str.71, ptr noundef %55, ptr noundef %57) #15
  br label %59

59:                                               ; preds = %52, %44
  %.pr = load ptr, ptr @rawoutstream, align 8, !tbaa !17
  %.not49 = icmp eq ptr %.pr, null
  br i1 %.not49, label %.thread, label %60

60:                                               ; preds = %59
  %fputc50 = call i32 @fputc(i32 10, ptr nonnull %.pr)
  br label %.thread

.thread:                                          ; preds = %43, %51, %60, %59
  call void @indentation(i32 noundef 3) #15
  call void (ptr, ...) @error_msg(ptr noundef nonnull @.str.84, ptr noundef %8) #15
  %61 = load ptr, ptr @h5tools_dump_header_format, align 8, !tbaa !60
  %62 = getelementptr inbounds nuw i8, ptr %61, i64 352
  %63 = load ptr, ptr %62, align 8, !tbaa !94
  %char0 = load i8, ptr %63, align 1
  %.not51 = icmp eq i8 %char0, 0
  %.pre64 = load ptr, ptr @rawoutstream, align 8
  br i1 %.not51, label %71, label %64

64:                                               ; preds = %.thread
  %.not52 = icmp eq ptr %.pre64, null
  br i1 %.not52, label %.thread73, label %65

65:                                               ; preds = %64
  %fputs = call i32 @fputs(ptr nonnull %63, ptr nonnull %.pre64)
  %.pre60 = load ptr, ptr @h5tools_dump_header_format, align 8, !tbaa !60
  %.pre61 = load ptr, ptr @rawoutstream, align 8
  %66 = getelementptr inbounds nuw i8, ptr %.pre60, i64 96
  %67 = load ptr, ptr %66, align 8, !tbaa !95
  %char053 = load i8, ptr %67, align 1
  %68 = icmp ne i8 %char053, 0
  %69 = icmp ne ptr %.pre61, null
  %or.cond = select i1 %68, i1 %69, i1 false
  br i1 %or.cond, label %70, label %71

70:                                               ; preds = %65
  %fputc54 = call i32 @fputc(i32 32, ptr nonnull %.pre61)
  %.pre62 = load ptr, ptr @h5tools_dump_header_format, align 8, !tbaa !60
  %.pre63 = load ptr, ptr @rawoutstream, align 8
  br label %71

71:                                               ; preds = %65, %70, %.thread
  %72 = phi ptr [ %.pre61, %65 ], [ %.pre63, %70 ], [ %.pre64, %.thread ]
  %73 = phi ptr [ %.pre60, %65 ], [ %.pre62, %70 ], [ %61, %.thread ]
  %74 = getelementptr inbounds nuw i8, ptr %73, i64 96
  %75 = load ptr, ptr %74, align 8, !tbaa !95
  %char055 = load i8, ptr %75, align 1
  %76 = icmp ne i8 %char055, 0
  %77 = icmp ne ptr %72, null
  %or.cond3 = select i1 %76, i1 %77, i1 false
  br i1 %or.cond3, label %78, label %.thread73

78:                                               ; preds = %71
  %fputs56 = call i32 @fputs(ptr nonnull %75, ptr nonnull %72)
  br label %.thread73

.thread73:                                        ; preds = %64, %78, %71
  call void @h5tools_setstatus(i32 noundef 1) #15
  br label %100

79:                                               ; preds = %split
  %80 = getelementptr inbounds nuw i8, ptr %35, i64 24
  %81 = load ptr, ptr %80, align 8, !tbaa !101
  %82 = getelementptr inbounds nuw %struct.obj_t, ptr %81, i64 %.pre-phi, i32 1
  %83 = load ptr, ptr %82, align 8, !tbaa !69
  %84 = call i64 @H5Dopen2(i64 noundef %0, ptr noundef %83, i64 noundef 0) #15
  %85 = call i64 @H5Dget_type(i64 noundef %84) #15
  %86 = load i32, ptr @dump_indent, align 4, !tbaa !4
  %87 = add i32 %86, 3
  store i32 %87, ptr @dump_indent, align 4, !tbaa !4
  call void @dump_named_datatype(i64 noundef %85, ptr noundef %8)
  %88 = load i32, ptr @dump_indent, align 4, !tbaa !4
  %89 = add i32 %88, -3
  store i32 %89, ptr @dump_indent, align 4, !tbaa !4
  %90 = call i32 @H5Tclose(i64 noundef %85) #15
  %91 = call i32 @H5Dclose(i64 noundef %84) #15
  br label %100

92:                                               ; preds = %5
  %93 = load i32, ptr @dump_indent, align 4, !tbaa !4
  %94 = add i32 %93, 3
  store i32 %94, ptr @dump_indent, align 4, !tbaa !4
  tail call void @dump_named_datatype(i64 noundef %9, ptr noundef %8)
  %95 = load i32, ptr @dump_indent, align 4, !tbaa !4
  %96 = add i32 %95, -3
  store i32 %96, ptr @dump_indent, align 4, !tbaa !4
  %97 = tail call i32 @H5Tclose(i64 noundef %9) #15
  %98 = icmp slt i32 %97, 0
  br i1 %98, label %99, label %100

99:                                               ; preds = %92
  tail call void @h5tools_setstatus(i32 noundef 1) #15
  br label %100

100:                                              ; preds = %79, %.thread73, %37, %92, %99
  ret void
}